target datalayout = "e-m:e-p270:32:32-p271:32:32-p272:64:64-i64:64-i128:128-f80:128-n8:16:32:64-S128"
target triple = "x86_64-pc-linux-gnu"

%struct.UDataInfo = type { i16, i16, i8, i8, i8, i8, [4 x i8], [4 x i8], [4 x i8] }
%struct.UDataSwapper = type { i8, i8, i8, i8, ptr, ptr, ptr, ptr, ptr, ptr, ptr, ptr, ptr, ptr, ptr }

@.str.22 = private unnamed_addr constant [102 x i8] c"upname_swap(): data format %02x.%02x.%02x.%02x (format version %02x) is not recognized as pnames.icu\0A\00", align 1
@.str.23 = private unnamed_addr constant [63 x i8] c"upname_swap(): too few bytes (%d after header) for pnames.icu\0A\00", align 1
@.str.24 = private unnamed_addr constant [77 x i8] c"upname_swap(): too few bytes (%d after header, should be %d) for pnames.icu\0A\00", align 1

; Function Attrs: inlinehint mustprogress nounwind uwtable
define internal noundef signext i8 @_ZL9U_FAILURE10UErrorCode(i32 noundef %0) #2 {
  %2 = alloca i32, align 4
  store i32 %0, ptr %2, align 4, !tbaa !11
  %3 = load i32, ptr %2, align 4, !tbaa !11
  %4 = icmp sgt i32 %3, 0
  %5 = zext i1 %4 to i8
  ret i8 %5
}

; Function Attrs: mustprogress uwtable
define internal noundef i32 @_ZL11upname_swapPK12UDataSwapperPKviPvP10UErrorCode(ptr noundef %0, ptr noundef %1, i32 noundef %2, ptr noundef %3, ptr noundef %4) #0 {
  %6 = alloca i32, align 4
  %7 = alloca ptr, align 8
  %8 = alloca ptr, align 8
  %9 = alloca i32, align 4
  %10 = alloca ptr, align 8
  %11 = alloca ptr, align 8
  %12 = alloca i32, align 4
  %13 = alloca i32, align 4
  %14 = alloca ptr, align 8
  %15 = alloca ptr, align 8
  %16 = alloca ptr, align 8
  %17 = alloca ptr, align 8
  %18 = alloca i32, align 4
  %19 = alloca i32, align 4
  store ptr %0, ptr %7, align 8, !tbaa !3
  store ptr %1, ptr %8, align 8, !tbaa !8
  store i32 %2, ptr %9, align 4, !tbaa !9
  store ptr %3, ptr %10, align 8, !tbaa !8
  store ptr %4, ptr %11, align 8, !tbaa !8
  call void @llvm.lifetime.start.p0(i64 4, ptr %12) #6
  %20 = load ptr, ptr %7, align 8, !tbaa !3
  %21 = load ptr, ptr %8, align 8, !tbaa !8
  %22 = load i32, ptr %9, align 4, !tbaa !9
  %23 = load ptr, ptr %10, align 8, !tbaa !8
  %24 = load ptr, ptr %11, align 8, !tbaa !8
  %25 = call i32 @udata_swapDataHeader_77(ptr noundef %20, ptr noundef %21, i32 noundef %22, ptr noundef %23, ptr noundef %24)
  store i32 %25, ptr %12, align 4, !tbaa !9
  %26 = load ptr, ptr %11, align 8, !tbaa !8
  %27 = icmp eq ptr %26, null
  br i1 %27, label %33, label %28

28:                                               ; preds = %5
  %29 = load ptr, ptr %11, align 8, !tbaa !8
  %30 = load i32, ptr %29, align 4, !tbaa !11
  %31 = call noundef signext i8 @_ZL9U_FAILURE10UErrorCode(i32 noundef %30)
  %32 = icmp ne i8 %31, 0
  br i1 %32, label %33, label %34

33:                                               ; preds = %28, %5
  store i32 0, ptr %6, align 4
  store i32 1, ptr %13, align 4
  br label %181

34:                                               ; preds = %28
  call void @llvm.lifetime.start.p0(i64 8, ptr %14) #6
  %35 = load ptr, ptr %8, align 8, !tbaa !8
  %36 = getelementptr inbounds i8, ptr %35, i64 4
  store ptr %36, ptr %14, align 8, !tbaa !8
  %37 = load ptr, ptr %14, align 8, !tbaa !8
  %38 = getelementptr inbounds nuw %struct.UDataInfo, ptr %37, i32 0, i32 6
  %39 = getelementptr inbounds [4 x i8], ptr %38, i64 0, i64 0
  %40 = load i8, ptr %39, align 2, !tbaa !13
  %41 = zext i8 %40 to i32
  %42 = icmp eq i32 %41, 112
  br i1 %42, label %43, label %71

43:                                               ; preds = %34
  %44 = load ptr, ptr %14, align 8, !tbaa !8
  %45 = getelementptr inbounds nuw %struct.UDataInfo, ptr %44, i32 0, i32 6
  %46 = getelementptr inbounds [4 x i8], ptr %45, i64 0, i64 1
  %47 = load i8, ptr %46, align 1, !tbaa !13
  %48 = zext i8 %47 to i32
  %49 = icmp eq i32 %48, 110
  br i1 %49, label %50, label %71

50:                                               ; preds = %43
  %51 = load ptr, ptr %14, align 8, !tbaa !8
  %52 = getelementptr inbounds nuw %struct.UDataInfo, ptr %51, i32 0, i32 6
  %53 = getelementptr inbounds [4 x i8], ptr %52, i64 0, i64 2
  %54 = load i8, ptr %53, align 2, !tbaa !13
  %55 = zext i8 %54 to i32
  %56 = icmp eq i32 %55, 97
  br i1 %56, label %57, label %71

57:                                               ; preds = %50
  %58 = load ptr, ptr %14, align 8, !tbaa !8
  %59 = getelementptr inbounds nuw %struct.UDataInfo, ptr %58, i32 0, i32 6
  %60 = getelementptr inbounds [4 x i8], ptr %59, i64 0, i64 3
  %61 = load i8, ptr %60, align 1, !tbaa !13
  %62 = zext i8 %61 to i32
  %63 = icmp eq i32 %62, 109
  br i1 %63, label %64, label %71

64:                                               ; preds = %57
  %65 = load ptr, ptr %14, align 8, !tbaa !8
  %66 = getelementptr inbounds nuw %struct.UDataInfo, ptr %65, i32 0, i32 7
  %67 = getelementptr inbounds [4 x i8], ptr %66, i64 0, i64 0
  %68 = load i8, ptr %67, align 2, !tbaa !13
  %69 = zext i8 %68 to i32
  %70 = icmp eq i32 %69, 2
  br i1 %70, label %99, label %71

71:                                               ; preds = %64, %57, %50, %43, %34
  %72 = load ptr, ptr %7, align 8, !tbaa !3
  %73 = load ptr, ptr %14, align 8, !tbaa !8
  %74 = getelementptr inbounds nuw %struct.UDataInfo, ptr %73, i32 0, i32 6
  %75 = getelementptr inbounds [4 x i8], ptr %74, i64 0, i64 0
  %76 = load i8, ptr %75, align 2, !tbaa !13
  %77 = zext i8 %76 to i32
  %78 = load ptr, ptr %14, align 8, !tbaa !8
  %79 = getelementptr inbounds nuw %struct.UDataInfo, ptr %78, i32 0, i32 6
  %80 = getelementptr inbounds [4 x i8], ptr %79, i64 0, i64 1
  %81 = load i8, ptr %80, align 1, !tbaa !13
  %82 = zext i8 %81 to i32
  %83 = load ptr, ptr %14, align 8, !tbaa !8
  %84 = getelementptr inbounds nuw %struct.UDataInfo, ptr %83, i32 0, i32 6
  %85 = getelementptr inbounds [4 x i8], ptr %84, i64 0, i64 2
  %86 = load i8, ptr %85, align 2, !tbaa !13
  %87 = zext i8 %86 to i32
  %88 = load ptr, ptr %14, align 8, !tbaa !8
  %89 = getelementptr inbounds nuw %struct.UDataInfo, ptr %88, i32 0, i32 6
  %90 = getelementptr inbounds [4 x i8], ptr %89, i64 0, i64 3
  %91 = load i8, ptr %90, align 1, !tbaa !13
  %92 = zext i8 %91 to i32
  %93 = load ptr, ptr %14, align 8, !tbaa !8
  %94 = getelementptr inbounds nuw %struct.UDataInfo, ptr %93, i32 0, i32 7
  %95 = getelementptr inbounds [4 x i8], ptr %94, i64 0, i64 0
  %96 = load i8, ptr %95, align 2, !tbaa !13
  %97 = zext i8 %96 to i32
  call void (ptr, ptr, ...) @udata_printError_77(ptr noundef %72, ptr noundef @.str.22, i32 noundef %77, i32 noundef %82, i32 noundef %87, i32 noundef %92, i32 noundef %97)
  %98 = load ptr, ptr %11, align 8, !tbaa !8
  store i32 16, ptr %98, align 4, !tbaa !11
  store i32 0, ptr %6, align 4
  store i32 1, ptr %13, align 4
  br label %180

99:                                               ; preds = %64
  call void @llvm.lifetime.start.p0(i64 8, ptr %15) #6
  %100 = load ptr, ptr %8, align 8, !tbaa !8
  %101 = load i32, ptr %12, align 4, !tbaa !9
  %102 = sext i32 %101 to i64
  %103 = getelementptr inbounds i8, ptr %100, i64 %102
  store ptr %103, ptr %15, align 8, !tbaa !27
  call void @llvm.lifetime.start.p0(i64 8, ptr %16) #6
  %104 = load ptr, ptr %10, align 8, !tbaa !8
  %105 = load i32, ptr %12, align 4, !tbaa !9
  %106 = sext i32 %105 to i64
  %107 = getelementptr inbounds i8, ptr %104, i64 %106
  store ptr %107, ptr %16, align 8, !tbaa !27
  %108 = load i32, ptr %9, align 4, !tbaa !9
  %109 = icmp sge i32 %108, 0
  br i1 %109, label %110, label %121

110:                                              ; preds = %99
  %111 = load i32, ptr %12, align 4, !tbaa !9
  %112 = load i32, ptr %9, align 4, !tbaa !9
  %113 = sub nsw i32 %112, %111
  store i32 %113, ptr %9, align 4, !tbaa !9
  %114 = load i32, ptr %9, align 4, !tbaa !9
  %115 = icmp slt i32 %114, 32
  br i1 %115, label %116, label %120

116:                                              ; preds = %110
  %117 = load ptr, ptr %7, align 8, !tbaa !3
  %118 = load i32, ptr %9, align 4, !tbaa !9
  call void (ptr, ptr, ...) @udata_printError_77(ptr noundef %117, ptr noundef @.str.23, i32 noundef %118)
  %119 = load ptr, ptr %11, align 8, !tbaa !8
  store i32 8, ptr %119, align 4, !tbaa !11
  store i32 0, ptr %6, align 4
  store i32 1, ptr %13, align 4
  br label %179

120:                                              ; preds = %110
  br label %121

121:                                              ; preds = %120, %99
  call void @llvm.lifetime.start.p0(i64 8, ptr %17) #6
  %122 = load ptr, ptr %15, align 8, !tbaa !27
  store ptr %122, ptr %17, align 8, !tbaa !20
  call void @llvm.lifetime.start.p0(i64 4, ptr %18) #6
  %123 = load ptr, ptr %7, align 8, !tbaa !3
  %124 = load ptr, ptr %17, align 8, !tbaa !20
  %125 = getelementptr inbounds nuw i32, ptr %124, i64 5
  %126 = load i32, ptr %125, align 4, !tbaa !9
  %127 = call i32 @udata_readInt32_77(ptr noundef %123, i32 noundef %126)
  store i32 %127, ptr %18, align 4, !tbaa !9
  %128 = load i32, ptr %9, align 4, !tbaa !9
  %129 = icmp sge i32 %128, 0
  br i1 %129, label %130, label %174

130:                                              ; preds = %121
  %131 = load i32, ptr %9, align 4, !tbaa !9
  %132 = load i32, ptr %18, align 4, !tbaa !9
  %133 = icmp slt i32 %131, %132
  br i1 %133, label %134, label %139

134:                                              ; preds = %130
  %135 = load ptr, ptr %7, align 8, !tbaa !3
  %136 = load i32, ptr %9, align 4, !tbaa !9
  %137 = load i32, ptr %18, align 4, !tbaa !9
  call void (ptr, ptr, ...) @udata_printError_77(ptr noundef %135, ptr noundef @.str.24, i32 noundef %136, i32 noundef %137)
  %138 = load ptr, ptr %11, align 8, !tbaa !8
  store i32 8, ptr %138, align 4, !tbaa !11
  store i32 0, ptr %6, align 4
  store i32 1, ptr %13, align 4
  br label %178

139:                                              ; preds = %130
  call void @llvm.lifetime.start.p0(i64 4, ptr %19) #6
  %140 = load ptr, ptr %7, align 8, !tbaa !3
  %141 = load ptr, ptr %17, align 8, !tbaa !20
  %142 = getelementptr inbounds nuw i32, ptr %141, i64 1
  %143 = load i32, ptr %142, align 4, !tbaa !9
  %144 = call i32 @udata_readInt32_77(ptr noundef %140, i32 noundef %143)
  store i32 %144, ptr %19, align 4, !tbaa !9
  %145 = load ptr, ptr %7, align 8, !tbaa !3
  %146 = getelementptr inbounds nuw %struct.UDataSwapper, ptr %145, i32 0, i32 10
  %147 = load ptr, ptr %146, align 8, !tbaa !24
  %148 = load ptr, ptr %7, align 8, !tbaa !3
  %149 = load ptr, ptr %15, align 8, !tbaa !27
  %150 = load i32, ptr %19, align 4, !tbaa !9
  %151 = load ptr, ptr %16, align 8, !tbaa !27
  %152 = load ptr, ptr %11, align 8, !tbaa !8
  %153 = call noundef i32 %147(ptr noundef %148, ptr noundef %149, i32 noundef %150, ptr noundef %151, ptr noundef %152)
  %154 = load ptr, ptr %15, align 8, !tbaa !27
  %155 = load ptr, ptr %16, align 8, !tbaa !27
  %156 = icmp ne ptr %154, %155
  br i1 %156, label %157, label %173

157:                                              ; preds = %139
  br label %158

158:                                              ; preds = %157
  %159 = load ptr, ptr %16, align 8, !tbaa !27
  %160 = load i32, ptr %19, align 4, !tbaa !9
  %161 = sext i32 %160 to i64
  %162 = getelementptr inbounds i8, ptr %159, i64 %161
  %163 = load ptr, ptr %15, align 8, !tbaa !27
  %164 = load i32, ptr %19, align 4, !tbaa !9
  %165 = sext i32 %164 to i64
  %166 = getelementptr inbounds i8, ptr %163, i64 %165
  %167 = load i32, ptr %18, align 4, !tbaa !9
  %168 = load i32, ptr %19, align 4, !tbaa !9
  %169 = sub nsw i32 %167, %168
  %170 = sext i32 %169 to i64
  call void @llvm.memcpy.p0.p0.i64(ptr align 1 %162, ptr align 1 %166, i64 %170, i1 false)
  br label %171

171:                                              ; preds = %158
  br label %172

172:                                              ; preds = %171
  br label %173

173:                                              ; preds = %172, %139
  call void @llvm.lifetime.end.p0(i64 4, ptr %19) #6
  br label %174

174:                                              ; preds = %173, %121
  %175 = load i32, ptr %12, align 4, !tbaa !9
  %176 = load i32, ptr %18, align 4, !tbaa !9
  %177 = add nsw i32 %175, %176
  store i32 %177, ptr %6, align 4
  store i32 1, ptr %13, align 4
  br label %178

178:                                              ; preds = %174, %134
  call void @llvm.lifetime.end.p0(i64 4, ptr %18) #6
  call void @llvm.lifetime.end.p0(i64 8, ptr %17) #6
  br label %179

179:                                              ; preds = %178, %116
  call void @llvm.lifetime.end.p0(i64 8, ptr %16) #6
  call void @llvm.lifetime.end.p0(i64 8, ptr %15) #6
  br label %180

180:                                              ; preds = %179, %71
  call void @llvm.lifetime.end.p0(i64 8, ptr %14) #6
  br label %181

181:                                              ; preds = %180, %33
  call void @llvm.lifetime.end.p0(i64 4, ptr %12) #6
  %182 = load i32, ptr %6, align 4
  ret i32 %182
}