; Function Attrs: mustprogress uwtable
define internal noundef i32 @_ZL11upname_swapPK12UDataSwapperPKviPvP10UErrorCode(ptr noundef %0, ptr noundef %1, i32 noundef %2, ptr noundef %3, ptr noundef %4) #0 {
  %6 = tail call i32 @udata_swapDataHeader_77(ptr noundef %0, ptr noundef %1, i32 noundef %2, ptr noundef %3, ptr noundef %4)
  %7 = icmp eq ptr %4, null
  br i1 %7, label %77, label %8

8:                                                ; preds = %5
  %9 = load i32, ptr %4, align 4, !tbaa !3
  %10 = icmp slt i32 %9, 1
  br i1 %10, label %11, label %77

11:                                               ; preds = %8
  %12 = getelementptr inbounds nuw i8, ptr %1, i64 12
  %13 = load i8, ptr %12, align 2, !tbaa !7
  %14 = icmp eq i8 %13, 112
  %15 = getelementptr inbounds nuw i8, ptr %1, i64 13
  %16 = load i8, ptr %15, align 1, !tbaa !7
  %17 = icmp eq i8 %16, 110
  %or.cond = select i1 %14, i1 %17, i1 false
  br i1 %or.cond, label %18, label %._crit_edge

18:                                               ; preds = %11
  %19 = getelementptr inbounds nuw i8, ptr %1, i64 14
  %20 = load i8, ptr %19, align 2, !tbaa !7
  %21 = icmp eq i8 %20, 97
  br i1 %21, label %22, label %._crit_edge

22:                                               ; preds = %18
  %23 = getelementptr inbounds nuw i8, ptr %1, i64 15
  %24 = load i8, ptr %23, align 1, !tbaa !7
  %25 = icmp eq i8 %24, 109
  br i1 %25, label %26, label %._crit_edge

26:                                               ; preds = %22
  %27 = getelementptr inbounds nuw i8, ptr %1, i64 16
  %28 = load i8, ptr %27, align 2, !tbaa !7
  %29 = icmp eq i8 %28, 2
  br i1 %29, label %42, label %._crit_edge

._crit_edge:                                      ; preds = %11, %26, %22, %18
  %30 = phi i8 [ 110, %26 ], [ 110, %22 ], [ 110, %18 ], [ %16, %11 ]
  %31 = zext i8 %13 to i32
  %32 = zext i8 %30 to i32
  %33 = getelementptr inbounds nuw i8, ptr %1, i64 14
  %34 = load i8, ptr %33, align 2, !tbaa !7
  %35 = zext i8 %34 to i32
  %36 = getelementptr inbounds nuw i8, ptr %1, i64 15
  %37 = load i8, ptr %36, align 1, !tbaa !7
  %38 = zext i8 %37 to i32
  %39 = getelementptr inbounds nuw i8, ptr %1, i64 16
  %40 = load i8, ptr %39, align 2, !tbaa !7
  %41 = zext i8 %40 to i32
  tail call void (ptr, ptr, ...) @udata_printError_77(ptr noundef %0, ptr noundef nonnull @.str.22, i32 noundef %31, i32 noundef %32, i32 noundef %35, i32 noundef %38, i32 noundef %41)
  store i32 16, ptr %4, align 4, !tbaa !3
  br label %77

42:                                               ; preds = %26
  %43 = sext i32 %6 to i64
  %44 = getelementptr inbounds i8, ptr %1, i64 %43
  %45 = getelementptr inbounds i8, ptr %3, i64 %43
  %46 = icmp sgt i32 %2, -1
  br i1 %46, label %47, label %51

47:                                               ; preds = %42
  %48 = sub nsw i32 %2, %6
  %49 = icmp slt i32 %48, 32
  br i1 %49, label %50, label %55

50:                                               ; preds = %47
  tail call void (ptr, ptr, ...) @udata_printError_77(ptr noundef %0, ptr noundef nonnull @.str.23, i32 noundef %48)
  store i32 8, ptr %4, align 4, !tbaa !3
  br label %77

51:                                               ; preds = %42
  %52 = getelementptr inbounds nuw i8, ptr %44, i64 20
  %53 = load i32, ptr %52, align 4, !tbaa !15
  %54 = tail call i32 @udata_readInt32_77(ptr noundef %0, i32 noundef %53)
  br label %74

55:                                               ; preds = %47
  %56 = getelementptr inbounds nuw i8, ptr %44, i64 20
  %57 = load i32, ptr %56, align 4, !tbaa !15
  %58 = tail call i32 @udata_readInt32_77(ptr noundef %0, i32 noundef %57)
  %59 = icmp slt i32 %48, %58
  br i1 %59, label %60, label %61

60:                                               ; preds = %55
  tail call void (ptr, ptr, ...) @udata_printError_77(ptr noundef %0, ptr noundef nonnull @.str.24, i32 noundef %48, i32 noundef %58)
  store i32 8, ptr %4, align 4, !tbaa !3
  br label %77

61:                                               ; preds = %55
  %62 = getelementptr inbounds nuw i8, ptr %44, i64 4
  %63 = load i32, ptr %62, align 4, !tbaa !15
  %64 = tail call i32 @udata_readInt32_77(ptr noundef %0, i32 noundef %63)
  %65 = getelementptr inbounds nuw i8, ptr %0, i64 56
  %66 = load ptr, ptr %65, align 8, !tbaa !19
  %67 = tail call noundef i32 %66(ptr noundef %0, ptr noundef nonnull %44, i32 noundef %64, ptr noundef %45, ptr noundef nonnull %4)
  %.not69 = icmp eq ptr %1, %3
  br i1 %.not69, label %74, label %68

68:                                               ; preds = %61
  %69 = sext i32 %64 to i64
  %70 = getelementptr inbounds i8, ptr %45, i64 %69
  %71 = getelementptr inbounds i8, ptr %44, i64 %69
  %72 = sub nsw i32 %58, %64
  %73 = sext i32 %72 to i64
  tail call void @llvm.memcpy.p0.p0.i64(ptr align 1 %70, ptr nonnull align 1 %71, i64 %73, i1 false)
  br label %74

74:                                               ; preds = %51, %61, %68
  %75 = phi i32 [ %58, %61 ], [ %58, %68 ], [ %54, %51 ]
  %76 = add nsw i32 %75, %6
  br label %77

77:                                               ; preds = %._crit_edge, %60, %74, %50, %5, %8
  %.0 = phi i32 [ 0, %8 ], [ 0, %5 ], [ 0, %._crit_edge ], [ 0, %50 ], [ 0, %60 ], [ %76, %74 ]
  ret i32 %.0
}